target datalayout = "e-m:e-p270:32:32-p271:32:32-p272:64:64-i64:64-i128:128-f80:128-n8:16:32:64-S128"
target triple = "x86_64-pc-linux-gnu"

%struct.tsi_handshaker = type { ptr, i8, i8, i8 }
%struct.tsi_handshaker_vtable = type { ptr, ptr, ptr, ptr, ptr, ptr, ptr, ptr }

; Function Attrs: mustprogress uwtable
define noundef i32 @_Z40tsi_handshaker_get_bytes_to_send_to_peerP14tsi_handshakerPhPm(ptr noundef %0, ptr noundef %1, ptr noundef %2) #5 {
  %4 = alloca i32, align 4
  %5 = alloca ptr, align 8
  %6 = alloca ptr, align 8
  %7 = alloca ptr, align 8
  store ptr %0, ptr %5, align 8, !tbaa !24
  store ptr %1, ptr %6, align 8, !tbaa !12
  store ptr %2, ptr %7, align 8, !tbaa !14
  %8 = load ptr, ptr %5, align 8, !tbaa !24
  %9 = icmp eq ptr %8, null
  br i1 %9, label %21, label %10

10:                                               ; preds = %3
  %11 = load ptr, ptr %5, align 8, !tbaa !24
  %12 = getelementptr inbounds nuw %struct.tsi_handshaker, ptr %11, i32 0, i32 0
  %13 = load ptr, ptr %12, align 8, !tbaa !26
  %14 = icmp eq ptr %13, null
  br i1 %14, label %21, label %15

15:                                               ; preds = %10
  %16 = load ptr, ptr %6, align 8, !tbaa !12
  %17 = icmp eq ptr %16, null
  br i1 %17, label %21, label %18

18:                                               ; preds = %15
  %19 = load ptr, ptr %7, align 8, !tbaa !14
  %20 = icmp eq ptr %19, null
  br i1 %20, label %21, label %22

21:                                               ; preds = %18, %15, %10, %3
  store i32 2, ptr %4, align 4
  br label %52

22:                                               ; preds = %18
  %23 = load ptr, ptr %5, align 8, !tbaa !24
  %24 = getelementptr inbounds nuw %struct.tsi_handshaker, ptr %23, i32 0, i32 1
  %25 = load i8, ptr %24, align 8, !tbaa !30, !range !31, !noundef !32
  %26 = trunc i8 %25 to i1
  br i1 %26, label %27, label %28

27:                                               ; preds = %22
  store i32 5, ptr %4, align 4
  br label %52

28:                                               ; preds = %22
  %29 = load ptr, ptr %5, align 8, !tbaa !24
  %30 = getelementptr inbounds nuw %struct.tsi_handshaker, ptr %29, i32 0, i32 3
  %31 = load i8, ptr %30, align 2, !tbaa !33, !range !31, !noundef !32
  %32 = trunc i8 %31 to i1
  br i1 %32, label %33, label %34

33:                                               ; preds = %28
  store i32 14, ptr %4, align 4
  br label %52

34:                                               ; preds = %28
  %35 = load ptr, ptr %5, align 8, !tbaa !24
  %36 = getelementptr inbounds nuw %struct.tsi_handshaker, ptr %35, i32 0, i32 0
  %37 = load ptr, ptr %36, align 8, !tbaa !26
  %38 = getelementptr inbounds nuw %struct.tsi_handshaker_vtable, ptr %37, i32 0, i32 0
  %39 = load ptr, ptr %38, align 8, !tbaa !34
  %40 = icmp eq ptr %39, null
  br i1 %40, label %41, label %42

41:                                               ; preds = %34
  store i32 6, ptr %4, align 4
  br label %52

42:                                               ; preds = %34
  %43 = load ptr, ptr %5, align 8, !tbaa !24
  %44 = getelementptr inbounds nuw %struct.tsi_handshaker, ptr %43, i32 0, i32 0
  %45 = load ptr, ptr %44, align 8, !tbaa !26
  %46 = getelementptr inbounds nuw %struct.tsi_handshaker_vtable, ptr %45, i32 0, i32 0
  %47 = load ptr, ptr %46, align 8, !tbaa !34
  %48 = load ptr, ptr %5, align 8, !tbaa !24
  %49 = load ptr, ptr %6, align 8, !tbaa !12
  %50 = load ptr, ptr %7, align 8, !tbaa !14
  %51 = call noundef i32 %47(ptr noundef %48, ptr noundef %49, ptr noundef %50)
  store i32 %51, ptr %4, align 4
  br label %52

52:                                               ; preds = %42, %41, %33, %27, %21
  %53 = load i32, ptr %4, align 4
  ret i32 %53
}