; Function Attrs: mustprogress uwtable
define noundef i32 @_Z40tsi_handshaker_get_bytes_to_send_to_peerP14tsi_handshakerPhPm(ptr noundef %0, ptr noundef %1, ptr noundef %2) local_unnamed_addr #4 {
  %4 = icmp eq ptr %0, null
  br i1 %4, label %23, label %5

5:                                                ; preds = %3
  %6 = load ptr, ptr %0, align 8, !tbaa !14
  %7 = icmp eq ptr %6, null
  %8 = icmp eq ptr %1, null
  %or.cond = or i1 %8, %7
  %9 = icmp eq ptr %2, null
  %or.cond3 = or i1 %9, %or.cond
  br i1 %or.cond3, label %23, label %10

10:                                               ; preds = %5
  %11 = getelementptr inbounds nuw i8, ptr %0, i64 8
  %12 = load i8, ptr %11, align 8, !tbaa !18, !range !19, !noundef !20
  %13 = trunc nuw i8 %12 to i1
  br i1 %13, label %23, label %14

14:                                               ; preds = %10
  %15 = getelementptr inbounds nuw i8, ptr %0, i64 10
  %16 = load i8, ptr %15, align 2, !tbaa !21, !range !19, !noundef !20
  %17 = trunc nuw i8 %16 to i1
  br i1 %17, label %23, label %18

18:                                               ; preds = %14
  %19 = load ptr, ptr %6, align 8, !tbaa !22
  %20 = icmp eq ptr %19, null
  br i1 %20, label %23, label %21

21:                                               ; preds = %18
  %22 = tail call noundef i32 %19(ptr noundef nonnull %0, ptr noundef nonnull %1, ptr noundef nonnull %2)
  br label %23

23:                                               ; preds = %18, %14, %10, %3, %5, %21
  %.0 = phi i32 [ %22, %21 ], [ 2, %5 ], [ 2, %3 ], [ 5, %10 ], [ 14, %14 ], [ 6, %18 ]
  ret i32 %.0
}